
Practica1.elf:     file format elf32-littlearm

Sections:
Idx Name          Size      VMA       LMA       File off  Algn
  0 .data         000c0088  0c000000  0c000000  00008000  2**2
                  CONTENTS, ALLOC, LOAD, DATA
  1 .bss          000c0004  0c0c0088  0c0c0088  000c8088  2**2
                  ALLOC
  2 .text         000005f0  0c18008c  0c18008c  000c808c  2**2
                  CONTENTS, ALLOC, LOAD, READONLY, CODE
  3 .ARM.attributes 0000002c  00000000  00000000  000c867c  2**0
                  CONTENTS, READONLY
  4 .comment      0000003b  00000000  00000000  000c86a8  2**0
                  CONTENTS, READONLY
  5 .debug_line   00000534  00000000  00000000  000c86e3  2**0
                  CONTENTS, READONLY, DEBUGGING
  6 .debug_info   00000531  00000000  00000000  000c8c17  2**0
                  CONTENTS, READONLY, DEBUGGING
  7 .debug_abbrev 00000257  00000000  00000000  000c9148  2**0
                  CONTENTS, READONLY, DEBUGGING
  8 .debug_aranges 000000a0  00000000  00000000  000c93a0  2**3
                  CONTENTS, READONLY, DEBUGGING
  9 .debug_macinfo 0000af62  00000000  00000000  000c9440  2**0
                  CONTENTS, READONLY, DEBUGGING
 10 .debug_pubnames 0000010f  00000000  00000000  000d43a2  2**0
                  CONTENTS, READONLY, DEBUGGING
 11 .debug_str    00000196  00000000  00000000  000d44b1  2**0
                  CONTENTS, READONLY, DEBUGGING
 12 .debug_loc    00000160  00000000  00000000  000d4647  2**0
                  CONTENTS, READONLY, DEBUGGING
 13 .debug_pubtypes 00000060  00000000  00000000  000d47a7  2**0
                  CONTENTS, READONLY, DEBUGGING
 14 .debug_frame  0000013c  00000000  00000000  000d4808  2**2
                  CONTENTS, READONLY, DEBUGGING

Disassembly of section .text:

0c18008c <start>:
    .extern main
    .extern _stack
	.global start

start:
    ldr sp,=_stack
 c18008c:	e59fd008 	ldr	sp, [pc, #8]	; c18009c <End+0x4>
    mov fp,#0
 c180090:	e3a0b000 	mov	fp, #0
    
    bl main
 c180094:	eb00000f 	bl	c1800d8 <main>

0c180098 <End>:

End:
    B End
 c180098:	eafffffe 	b	c180098 <End>
 c18009c:	0c7ff000 	.word	0x0c7ff000

0c1800a0 <initRGB>:
        	imagenRGB[i*ncols+j].B = (i+j)%256;
        }
}
#else
void initRGB(int nfilas, int ncols)
{
 c1800a0:	e1a0c00d 	mov	ip, sp
 c1800a4:	e92dd800 	push	{fp, ip, lr, pc}
 c1800a8:	e24cb004 	sub	fp, ip, #4
 c1800ac:	e24dd008 	sub	sp, sp, #8
 c1800b0:	e50b0010 	str	r0, [fp, #-16]
 c1800b4:	e50b1014 	str	r1, [fp, #-20]	; 0xffffffec
    imagenRGB = (pixelRGB*) imageLena512;
 c1800b8:	e59f2010 	ldr	r2, [pc, #16]	; c1800d0 <initRGB+0x30>
 c1800bc:	e59f3010 	ldr	r3, [pc, #16]	; c1800d4 <initRGB+0x34>
 c1800c0:	e5832000 	str	r2, [r3]
}
 c1800c4:	e24bd00c 	sub	sp, fp, #12
 c1800c8:	e89d6800 	ldm	sp, {fp, sp, lr}
 c1800cc:	e12fff1e 	bx	lr
 c1800d0:	0c000000 	.word	0x0c000000
 c1800d4:	0c0c0088 	.word	0x0c0c0088

0c1800d8 <main>:
#endif


int main() {
 c1800d8:	e1a0c00d 	mov	ip, sp
 c1800dc:	e92dd800 	push	{fp, ip, lr, pc}
 c1800e0:	e24cb004 	sub	fp, ip, #4
 c1800e4:	e24dd008 	sub	sp, sp, #8
	short int time = 0;
 c1800e8:	e3a03000 	mov	r3, #0
 c1800ec:	e14b30be 	strh	r3, [fp, #-14]
    timer_init();
 c1800f0:	eb000037 	bl	c1801d4 <timer_init>
    initRGB(N,M);
 c1800f4:	e3a00c02 	mov	r0, #512	; 0x200
 c1800f8:	e3a01c02 	mov	r1, #512	; 0x200
 c1800fc:	ebffffe7 	bl	c1800a0 <initRGB>
    timer_start();
 c180100:	eb00003e 	bl	c180200 <timer_start>
    RGB2GrayMatrix(imagenRGB, imagenGris,N,M);
 c180104:	e59f305c 	ldr	r3, [pc, #92]	; c180168 <main+0x90>
 c180108:	e5933000 	ldr	r3, [r3]
 c18010c:	e1a00003 	mov	r0, r3
 c180110:	e59f1054 	ldr	r1, [pc, #84]	; c18016c <main+0x94>
 c180114:	e3a02c02 	mov	r2, #512	; 0x200
 c180118:	e3a03c02 	mov	r3, #512	; 0x200
 c18011c:	eb000063 	bl	c1802b0 <RGB2GrayMatrix>
    apply_gaussian(imagenGris, imagenGauss, N, M);
 c180120:	e59f0044 	ldr	r0, [pc, #68]	; c18016c <main+0x94>
 c180124:	e59f1044 	ldr	r1, [pc, #68]	; c180170 <main+0x98>
 c180128:	e3a02c02 	mov	r2, #512	; 0x200
 c18012c:	e3a03c02 	mov	r3, #512	; 0x200
 c180130:	eb000093 	bl	c180384 <apply_gaussian>
    apply_sobel(imagenGauss, imagenSobel, N, M);
 c180134:	e59f0034 	ldr	r0, [pc, #52]	; c180170 <main+0x98>
 c180138:	e59f1034 	ldr	r1, [pc, #52]	; c180174 <main+0x9c>
 c18013c:	e3a02c02 	mov	r2, #512	; 0x200
 c180140:	e3a03c02 	mov	r3, #512	; 0x200
 c180144:	eb0000be 	bl	c180444 <apply_sobel>
    time = timer_stop();
 c180148:	eb000041 	bl	c180254 <timer_stop>
 c18014c:	e1a03000 	mov	r3, r0
 c180150:	e14b30be 	strh	r3, [fp, #-14]
    return 0;
 c180154:	e3a03000 	mov	r3, #0
}
 c180158:	e1a00003 	mov	r0, r3
 c18015c:	e24bd00c 	sub	sp, fp, #12
 c180160:	e89d6800 	ldm	sp, {fp, sp, lr}
 c180164:	e12fff1e 	bx	lr
 c180168:	0c0c0088 	.word	0x0c0c0088
 c18016c:	0c14008c 	.word	0x0c14008c
 c180170:	0c0c008c 	.word	0x0c0c008c
 c180174:	0c10008c 	.word	0x0c10008c

0c180178 <rgb2gray>:
.global rgb2gray

rgb2gray:

	//Prologo
	push {r4-r6,lr}
 c180178:	e92d4070 	push	{r4, r5, r6, lr}

	//CUERPO*
	mov r3,#1 //AUX1
 c18017c:	e3a03001 	mov	r3, #1
	mov r4,#1 //AUX2
 c180180:	e3a04001 	mov	r4, #1

	ldr r5, = COEF1
 c180184:	e59f503c 	ldr	r5, [pc, #60]	; c1801c8 <div16384+0x8>
	ldrb r6,[r0]//pixel R
 c180188:	e5d06000 	ldrb	r6, [r0]
	mul r3,r5,r6
 c18018c:	e0030695 	mul	r3, r5, r6

	ldr r5, = COEF2
 c180190:	e59f5034 	ldr	r5, [pc, #52]	; c1801cc <div16384+0xc>
	ldrb r6,[r0,#1]//pixel G
 c180194:	e5d06001 	ldrb	r6, [r0, #1]
	mul r4,r5,r6
 c180198:	e0040695 	mul	r4, r5, r6
	add r3,r3,r4
 c18019c:	e0833004 	add	r3, r3, r4

	ldr r5, = COEF3
 c1801a0:	e59f5028 	ldr	r5, [pc, #40]	; c1801d0 <div16384+0x10>
	ldrb r6,[r0,#2] //pixel B
 c1801a4:	e5d06002 	ldrb	r6, [r0, #2]
	mul r4,r5,r6
 c1801a8:	e0040695 	mul	r4, r5, r6
	add r3,r4,r3
 c1801ac:	e0843003 	add	r3, r4, r3

	mov r0,r3
 c1801b0:	e1a00003 	mov	r0, r3

	bl div16384
 c1801b4:	eb000001 	bl	c1801c0 <div16384>
	pop {r4-r6,lr}
 c1801b8:	e8bd4070 	pop	{r4, r5, r6, lr}
	mov pc,lr
 c1801bc:	e1a0f00e 	mov	pc, lr

0c1801c0 <div16384>:
div16384:
	lsr r0,r0,#14
 c1801c0:	e1a00720 	lsr	r0, r0, #14
	mov pc,lr
 c1801c4:	e1a0f00e 	mov	pc, lr
 c1801c8:	00000d9b 	.word	0x00000d9b
 c1801cc:	00002dc6 	.word	0x00002dc6
 c1801d0:	0000049f 	.word	0x0000049f

0c1801d4 <timer_init>:
#define rWTCON		(*(volatile unsigned *)0x1d30000)
#define rWTDAT		(*(volatile unsigned *)0x1d30004)
#define rWTCNT		(*(volatile unsigned *)0x1d30008)

void timer_init(void)
{
 c1801d4:	e1a0c00d 	mov	ip, sp
 c1801d8:	e92dd800 	push	{fp, ip, lr, pc}
 c1801dc:	e24cb004 	sub	fp, ip, #4
	// freq=MCLK/(P+1)/D => P = MCLK/(freq*D) - 1
	// freq=2000 (2KHz T=0.5ms) D=128 P= MCLK/(128*2000) - 1
	// Max count = 65535*0.5ms = 37 segundos (aprox)
	rWTCON=((MCLK/256000-1)<<8)|(3<<3);
 c1801e0:	e59f3010 	ldr	r3, [pc, #16]	; c1801f8 <timer_init+0x24>
 c1801e4:	e59f2010 	ldr	r2, [pc, #16]	; c1801fc <timer_init+0x28>
 c1801e8:	e5832000 	str	r2, [r3]
}
 c1801ec:	e24bd00c 	sub	sp, fp, #12
 c1801f0:	e89d6800 	ldm	sp, {fp, sp, lr}
 c1801f4:	e12fff1e 	bx	lr
 c1801f8:	01d30000 	.word	0x01d30000
 c1801fc:	0000f918 	.word	0x0000f918

0c180200 <timer_start>:

void timer_start(void)
{
 c180200:	e1a0c00d 	mov	ip, sp
 c180204:	e92dd800 	push	{fp, ip, lr, pc}
 c180208:	e24cb004 	sub	fp, ip, #4
	rWTDAT=0xffff;
 c18020c:	e59f3030 	ldr	r3, [pc, #48]	; c180244 <timer_start+0x44>
 c180210:	e59f2030 	ldr	r2, [pc, #48]	; c180248 <timer_start+0x48>
 c180214:	e5832000 	str	r2, [r3]
	rWTCNT=0xffff;	 
 c180218:	e59f302c 	ldr	r3, [pc, #44]	; c18024c <timer_start+0x4c>
 c18021c:	e59f2024 	ldr	r2, [pc, #36]	; c180248 <timer_start+0x48>
 c180220:	e5832000 	str	r2, [r3]
	rWTCON |= (1<<5); 
 c180224:	e59f3024 	ldr	r3, [pc, #36]	; c180250 <timer_start+0x50>
 c180228:	e59f2020 	ldr	r2, [pc, #32]	; c180250 <timer_start+0x50>
 c18022c:	e5922000 	ldr	r2, [r2]
 c180230:	e3822020 	orr	r2, r2, #32
 c180234:	e5832000 	str	r2, [r3]
}
 c180238:	e24bd00c 	sub	sp, fp, #12
 c18023c:	e89d6800 	ldm	sp, {fp, sp, lr}
 c180240:	e12fff1e 	bx	lr
 c180244:	01d30004 	.word	0x01d30004
 c180248:	0000ffff 	.word	0x0000ffff
 c18024c:	01d30008 	.word	0x01d30008
 c180250:	01d30000 	.word	0x01d30000

0c180254 <timer_stop>:

short int timer_stop(void)
{
 c180254:	e1a0c00d 	mov	ip, sp
 c180258:	e92dd800 	push	{fp, ip, lr, pc}
 c18025c:	e24cb004 	sub	fp, ip, #4
	rWTCON &= ~(1<<5);
 c180260:	e59f3040 	ldr	r3, [pc, #64]	; c1802a8 <timer_stop+0x54>
 c180264:	e59f203c 	ldr	r2, [pc, #60]	; c1802a8 <timer_stop+0x54>
 c180268:	e5922000 	ldr	r2, [r2]
 c18026c:	e3c22020 	bic	r2, r2, #32
 c180270:	e5832000 	str	r2, [r3]
	return (0xffff-rWTCNT);
 c180274:	e59f3030 	ldr	r3, [pc, #48]	; c1802ac <timer_stop+0x58>
 c180278:	e5933000 	ldr	r3, [r3]
 c18027c:	e1a03803 	lsl	r3, r3, #16
 c180280:	e1a03823 	lsr	r3, r3, #16
 c180284:	e1e03003 	mvn	r3, r3
 c180288:	e1a03803 	lsl	r3, r3, #16
 c18028c:	e1a03823 	lsr	r3, r3, #16
 c180290:	e1a03803 	lsl	r3, r3, #16
 c180294:	e1a03843 	asr	r3, r3, #16
}
 c180298:	e1a00003 	mov	r0, r3
 c18029c:	e24bd00c 	sub	sp, fp, #12
 c1802a0:	e89d6800 	ldm	sp, {fp, sp, lr}
 c1802a4:	e12fff1e 	bx	lr
 c1802a8:	01d30000 	.word	0x01d30000
 c1802ac:	01d30008 	.word	0x01d30008

0c1802b0 <RGB2GrayMatrix>:
{

	return ((pixel->R * 3483) + (pixel->G * 11718) + (pixel->B * 1183))/16834;
}*/

void RGB2GrayMatrix(pixelRGB orig[], unsigned char dest[], int nfilas, int ncols) {
 c1802b0:	e1a0c00d 	mov	ip, sp
 c1802b4:	e92dd810 	push	{r4, fp, ip, lr, pc}
 c1802b8:	e24cb004 	sub	fp, ip, #4
 c1802bc:	e24dd01c 	sub	sp, sp, #28
 c1802c0:	e50b0020 	str	r0, [fp, #-32]	; 0xffffffe0
 c1802c4:	e50b1024 	str	r1, [fp, #-36]	; 0xffffffdc
 c1802c8:	e50b2028 	str	r2, [fp, #-40]	; 0xffffffd8
 c1802cc:	e50b302c 	str	r3, [fp, #-44]	; 0xffffffd4
    int i,j;
    for (i=0;i<nfilas;i++)
 c1802d0:	e3a03000 	mov	r3, #0
 c1802d4:	e50b3018 	str	r3, [fp, #-24]	; 0xffffffe8
 c1802d8:	ea000022 	b	c180368 <RGB2GrayMatrix+0xb8>
    	for (j=0; j<ncols; j++)
 c1802dc:	e3a03000 	mov	r3, #0
 c1802e0:	e50b301c 	str	r3, [fp, #-28]	; 0xffffffe4
 c1802e4:	ea000018 	b	c18034c <RGB2GrayMatrix+0x9c>
    		dest[i*ncols+j]=rgb2gray(&orig[i*ncols+j]);
 c1802e8:	e51b3018 	ldr	r3, [fp, #-24]	; 0xffffffe8
 c1802ec:	e51b202c 	ldr	r2, [fp, #-44]	; 0xffffffd4
 c1802f0:	e0020293 	mul	r2, r3, r2
 c1802f4:	e51b301c 	ldr	r3, [fp, #-28]	; 0xffffffe4
 c1802f8:	e0823003 	add	r3, r2, r3
 c1802fc:	e51b2024 	ldr	r2, [fp, #-36]	; 0xffffffdc
 c180300:	e0824003 	add	r4, r2, r3
 c180304:	e51b3018 	ldr	r3, [fp, #-24]	; 0xffffffe8
 c180308:	e51b202c 	ldr	r2, [fp, #-44]	; 0xffffffd4
 c18030c:	e0020293 	mul	r2, r3, r2
 c180310:	e51b301c 	ldr	r3, [fp, #-28]	; 0xffffffe4
 c180314:	e0823003 	add	r3, r2, r3
 c180318:	e1a02003 	mov	r2, r3
 c18031c:	e1a03002 	mov	r3, r2
 c180320:	e1a03083 	lsl	r3, r3, #1
 c180324:	e0833002 	add	r3, r3, r2
 c180328:	e51b2020 	ldr	r2, [fp, #-32]	; 0xffffffe0
 c18032c:	e0823003 	add	r3, r2, r3
 c180330:	e1a00003 	mov	r0, r3
 c180334:	ebffff8f 	bl	c180178 <rgb2gray>
 c180338:	e1a03000 	mov	r3, r0
 c18033c:	e5c43000 	strb	r3, [r4]
}*/

void RGB2GrayMatrix(pixelRGB orig[], unsigned char dest[], int nfilas, int ncols) {
    int i,j;
    for (i=0;i<nfilas;i++)
    	for (j=0; j<ncols; j++)
 c180340:	e51b301c 	ldr	r3, [fp, #-28]	; 0xffffffe4
 c180344:	e2833001 	add	r3, r3, #1
 c180348:	e50b301c 	str	r3, [fp, #-28]	; 0xffffffe4
 c18034c:	e51b201c 	ldr	r2, [fp, #-28]	; 0xffffffe4
 c180350:	e51b302c 	ldr	r3, [fp, #-44]	; 0xffffffd4
 c180354:	e1520003 	cmp	r2, r3
 c180358:	baffffe2 	blt	c1802e8 <RGB2GrayMatrix+0x38>
	return ((pixel->R * 3483) + (pixel->G * 11718) + (pixel->B * 1183))/16834;
}*/

void RGB2GrayMatrix(pixelRGB orig[], unsigned char dest[], int nfilas, int ncols) {
    int i,j;
    for (i=0;i<nfilas;i++)
 c18035c:	e51b3018 	ldr	r3, [fp, #-24]	; 0xffffffe8
 c180360:	e2833001 	add	r3, r3, #1
 c180364:	e50b3018 	str	r3, [fp, #-24]	; 0xffffffe8
 c180368:	e51b2018 	ldr	r2, [fp, #-24]	; 0xffffffe8
 c18036c:	e51b3028 	ldr	r3, [fp, #-40]	; 0xffffffd8
 c180370:	e1520003 	cmp	r2, r3
 c180374:	baffffd8 	blt	c1802dc <RGB2GrayMatrix+0x2c>
    	for (j=0; j<ncols; j++)
    		dest[i*ncols+j]=rgb2gray(&orig[i*ncols+j]);

}
 c180378:	e24bd010 	sub	sp, fp, #16
 c18037c:	e89d6810 	ldm	sp, {r4, fp, sp, lr}
 c180380:	e12fff1e 	bx	lr

0c180384 <apply_gaussian>:

void apply_gaussian(unsigned char im1[], unsigned char im2[], int width, int height){
 c180384:	e1a0c00d 	mov	ip, sp
 c180388:	e92dd810 	push	{r4, fp, ip, lr, pc}
 c18038c:	e24cb004 	sub	fp, ip, #4
 c180390:	e24dd024 	sub	sp, sp, #36	; 0x24
 c180394:	e50b0020 	str	r0, [fp, #-32]	; 0xffffffe0
 c180398:	e50b1024 	str	r1, [fp, #-36]	; 0xffffffdc
 c18039c:	e50b2028 	str	r2, [fp, #-40]	; 0xffffffd8
 c1803a0:	e50b302c 	str	r3, [fp, #-44]	; 0xffffffd4
	int i, j;
	for(i=0; i<height; i++)
 c1803a4:	e3a03000 	mov	r3, #0
 c1803a8:	e50b3018 	str	r3, [fp, #-24]	; 0xffffffe8
 c1803ac:	ea00001d 	b	c180428 <apply_gaussian+0xa4>
		for(j=0; j< width; j++)
 c1803b0:	e3a03000 	mov	r3, #0
 c1803b4:	e50b301c 	str	r3, [fp, #-28]	; 0xffffffe4
 c1803b8:	ea000013 	b	c18040c <apply_gaussian+0x88>
			im2[i*width+j] = gaussian(im1, width, height, i, j);
 c1803bc:	e51b3018 	ldr	r3, [fp, #-24]	; 0xffffffe8
 c1803c0:	e51b2028 	ldr	r2, [fp, #-40]	; 0xffffffd8
 c1803c4:	e0020293 	mul	r2, r3, r2
 c1803c8:	e51b301c 	ldr	r3, [fp, #-28]	; 0xffffffe4
 c1803cc:	e0823003 	add	r3, r2, r3
 c1803d0:	e51b2024 	ldr	r2, [fp, #-36]	; 0xffffffdc
 c1803d4:	e0824003 	add	r4, r2, r3
 c1803d8:	e51b301c 	ldr	r3, [fp, #-28]	; 0xffffffe4
 c1803dc:	e58d3000 	str	r3, [sp]
 c1803e0:	e51b0020 	ldr	r0, [fp, #-32]	; 0xffffffe0
 c1803e4:	e51b1028 	ldr	r1, [fp, #-40]	; 0xffffffd8
 c1803e8:	e51b202c 	ldr	r2, [fp, #-44]	; 0xffffffd4
 c1803ec:	e51b3018 	ldr	r3, [fp, #-24]	; 0xffffffe8
 c1803f0:	eb000043 	bl	c180504 <gaussian>
 c1803f4:	e1a03000 	mov	r3, r0
 c1803f8:	e20330ff 	and	r3, r3, #255	; 0xff
 c1803fc:	e5c43000 	strb	r3, [r4]
}

void apply_gaussian(unsigned char im1[], unsigned char im2[], int width, int height){
	int i, j;
	for(i=0; i<height; i++)
		for(j=0; j< width; j++)
 c180400:	e51b301c 	ldr	r3, [fp, #-28]	; 0xffffffe4
 c180404:	e2833001 	add	r3, r3, #1
 c180408:	e50b301c 	str	r3, [fp, #-28]	; 0xffffffe4
 c18040c:	e51b201c 	ldr	r2, [fp, #-28]	; 0xffffffe4
 c180410:	e51b3028 	ldr	r3, [fp, #-40]	; 0xffffffd8
 c180414:	e1520003 	cmp	r2, r3
 c180418:	baffffe7 	blt	c1803bc <apply_gaussian+0x38>

}

void apply_gaussian(unsigned char im1[], unsigned char im2[], int width, int height){
	int i, j;
	for(i=0; i<height; i++)
 c18041c:	e51b3018 	ldr	r3, [fp, #-24]	; 0xffffffe8
 c180420:	e2833001 	add	r3, r3, #1
 c180424:	e50b3018 	str	r3, [fp, #-24]	; 0xffffffe8
 c180428:	e51b2018 	ldr	r2, [fp, #-24]	; 0xffffffe8
 c18042c:	e51b302c 	ldr	r3, [fp, #-44]	; 0xffffffd4
 c180430:	e1520003 	cmp	r2, r3
 c180434:	baffffdd 	blt	c1803b0 <apply_gaussian+0x2c>
		for(j=0; j< width; j++)
			im2[i*width+j] = gaussian(im1, width, height, i, j);
}
 c180438:	e24bd010 	sub	sp, fp, #16
 c18043c:	e89d6810 	ldm	sp, {r4, fp, sp, lr}
 c180440:	e12fff1e 	bx	lr

0c180444 <apply_sobel>:

void apply_sobel(unsigned char im1[], unsigned char im2[], int width, int height){
 c180444:	e1a0c00d 	mov	ip, sp
 c180448:	e92dd810 	push	{r4, fp, ip, lr, pc}
 c18044c:	e24cb004 	sub	fp, ip, #4
 c180450:	e24dd024 	sub	sp, sp, #36	; 0x24
 c180454:	e50b0020 	str	r0, [fp, #-32]	; 0xffffffe0
 c180458:	e50b1024 	str	r1, [fp, #-36]	; 0xffffffdc
 c18045c:	e50b2028 	str	r2, [fp, #-40]	; 0xffffffd8
 c180460:	e50b302c 	str	r3, [fp, #-44]	; 0xffffffd4
	int i,j;
		for (i=0 ; i < height; ++i)
 c180464:	e3a03000 	mov	r3, #0
 c180468:	e50b3018 	str	r3, [fp, #-24]	; 0xffffffe8
 c18046c:	ea00001d 	b	c1804e8 <apply_sobel+0xa4>
			for (j=0 ; j < width; ++j)
 c180470:	e3a03000 	mov	r3, #0
 c180474:	e50b301c 	str	r3, [fp, #-28]	; 0xffffffe4
 c180478:	ea000013 	b	c1804cc <apply_sobel+0x88>
				im2[i * width + j] = sobel(im1, width, height, i, j);
 c18047c:	e51b3018 	ldr	r3, [fp, #-24]	; 0xffffffe8
 c180480:	e51b2028 	ldr	r2, [fp, #-40]	; 0xffffffd8
 c180484:	e0020293 	mul	r2, r3, r2
 c180488:	e51b301c 	ldr	r3, [fp, #-28]	; 0xffffffe4
 c18048c:	e0823003 	add	r3, r2, r3
 c180490:	e51b2024 	ldr	r2, [fp, #-36]	; 0xffffffdc
 c180494:	e0824003 	add	r4, r2, r3
 c180498:	e51b301c 	ldr	r3, [fp, #-28]	; 0xffffffe4
 c18049c:	e58d3000 	str	r3, [sp]
 c1804a0:	e51b0020 	ldr	r0, [fp, #-32]	; 0xffffffe0
 c1804a4:	e51b1028 	ldr	r1, [fp, #-40]	; 0xffffffd8
 c1804a8:	e51b202c 	ldr	r2, [fp, #-44]	; 0xffffffd4
 c1804ac:	e51b3018 	ldr	r3, [fp, #-24]	; 0xffffffe8
 c1804b0:	eb000040 	bl	c1805b8 <sobel>
 c1804b4:	e1a03000 	mov	r3, r0
 c1804b8:	e20330ff 	and	r3, r3, #255	; 0xff
 c1804bc:	e5c43000 	strb	r3, [r4]
}

void apply_sobel(unsigned char im1[], unsigned char im2[], int width, int height){
	int i,j;
		for (i=0 ; i < height; ++i)
			for (j=0 ; j < width; ++j)
 c1804c0:	e51b301c 	ldr	r3, [fp, #-28]	; 0xffffffe4
 c1804c4:	e2833001 	add	r3, r3, #1
 c1804c8:	e50b301c 	str	r3, [fp, #-28]	; 0xffffffe4
 c1804cc:	e51b201c 	ldr	r2, [fp, #-28]	; 0xffffffe4
 c1804d0:	e51b3028 	ldr	r3, [fp, #-40]	; 0xffffffd8
 c1804d4:	e1520003 	cmp	r2, r3
 c1804d8:	baffffe7 	blt	c18047c <apply_sobel+0x38>
			im2[i*width+j] = gaussian(im1, width, height, i, j);
}

void apply_sobel(unsigned char im1[], unsigned char im2[], int width, int height){
	int i,j;
		for (i=0 ; i < height; ++i)
 c1804dc:	e51b3018 	ldr	r3, [fp, #-24]	; 0xffffffe8
 c1804e0:	e2833001 	add	r3, r3, #1
 c1804e4:	e50b3018 	str	r3, [fp, #-24]	; 0xffffffe8
 c1804e8:	e51b2018 	ldr	r2, [fp, #-24]	; 0xffffffe8
 c1804ec:	e51b302c 	ldr	r3, [fp, #-44]	; 0xffffffd4
 c1804f0:	e1520003 	cmp	r2, r3
 c1804f4:	baffffdd 	blt	c180470 <apply_sobel+0x2c>
			for (j=0 ; j < width; ++j)
				im2[i * width + j] = sobel(im1, width, height, i, j);


}
 c1804f8:	e24bd010 	sub	sp, fp, #16
 c1804fc:	e89d6810 	ldm	sp, {r4, fp, sp, lr}
 c180500:	e12fff1e 	bx	lr

0c180504 <gaussian>:
 c180504:	e92d01f0 	push	{r4, r5, r6, r7, r8}
 c180508:	e3530001 	cmp	r3, #1
 c18050c:	e59dc014 	ldr	ip, [sp, #20]
 c180510:	da000022 	ble	c1805a0 <gaussian+0x9c>
 c180514:	e2422002 	sub	r2, r2, #2
 c180518:	e1530002 	cmp	r3, r2
 c18051c:	aa00001f 	bge	c1805a0 <gaussian+0x9c>
 c180520:	e35c0001 	cmp	ip, #1
 c180524:	da00001d 	ble	c1805a0 <gaussian+0x9c>
 c180528:	e2412002 	sub	r2, r1, #2
 c18052c:	e15c0002 	cmp	ip, r2
 c180530:	aa00001a 	bge	c1805a0 <gaussian+0x9c>
 c180534:	e2433002 	sub	r3, r3, #2
 c180538:	e02cc391 	mla	ip, r1, r3, ip
 c18053c:	e3a07000 	mov	r7, #0
 c180540:	e59f8068 	ldr	r8, [pc, #104]	; c1805b0 <gaussian+0xac>
 c180544:	e080000c 	add	r0, r0, ip
 c180548:	e1a0c007 	mov	ip, r7
 c18054c:	e0872107 	add	r2, r7, r7, lsl #2
 c180550:	e0882102 	add	r2, r8, r2, lsl #2
 c180554:	e2422004 	sub	r2, r2, #4
 c180558:	e2806005 	add	r6, r0, #5
 c18055c:	e1a03000 	mov	r3, r0
 c180560:	e5534002 	ldrb	r4, [r3, #-2]
 c180564:	e5b25004 	ldr	r5, [r2, #4]!
 c180568:	e2833001 	add	r3, r3, #1
 c18056c:	e1530006 	cmp	r3, r6
 c180570:	e02cc495 	mla	ip, r5, r4, ip
 c180574:	1afffff9 	bne	c180560 <gaussian+0x5c>
 c180578:	e2877001 	add	r7, r7, #1
 c18057c:	e3570005 	cmp	r7, #5
 c180580:	e0800001 	add	r0, r0, r1
 c180584:	1afffff0 	bne	c18054c <gaussian+0x48>
 c180588:	e59f3024 	ldr	r3, [pc, #36]	; c1805b4 <gaussian+0xb0>
 c18058c:	e083239c 	umull	r2, r3, ip, r3
 c180590:	e063c00c 	rsb	ip, r3, ip
 c180594:	e08330ac 	add	r3, r3, ip, lsr #1
 c180598:	e1a00423 	lsr	r0, r3, #8
 c18059c:	ea000001 	b	c1805a8 <gaussian+0xa4>
 c1805a0:	e0200391 	mla	r0, r1, r3, r0
 c1805a4:	e7d0000c 	ldrb	r0, [r0, ip]
 c1805a8:	e8bd01f0 	pop	{r4, r5, r6, r7, r8}
 c1805ac:	e12fff1e 	bx	lr
 c1805b0:	0c0c0000 	.word	0x0c0c0000
 c1805b4:	e01e01e1 	.word	0xe01e01e1

0c1805b8 <sobel>:
 c1805b8:	e92d0ff0 	push	{r4, r5, r6, r7, r8, r9, sl, fp}
 c1805bc:	e3530000 	cmp	r3, #0
 c1805c0:	e59dc020 	ldr	ip, [sp, #32]
 c1805c4:	da000027 	ble	c180668 <sobel+0xb0>
 c1805c8:	e2422001 	sub	r2, r2, #1
 c1805cc:	e1530002 	cmp	r3, r2
 c1805d0:	aa000024 	bge	c180668 <sobel+0xb0>
 c1805d4:	e35c0000 	cmp	ip, #0
 c1805d8:	da000022 	ble	c180668 <sobel+0xb0>
 c1805dc:	e2412001 	sub	r2, r1, #1
 c1805e0:	e15c0002 	cmp	ip, r2
 c1805e4:	aa00001f 	bge	c180668 <sobel+0xb0>
 c1805e8:	e2433001 	sub	r3, r3, #1
 c1805ec:	e02cc391 	mla	ip, r1, r3, ip
 c1805f0:	e3a05000 	mov	r5, #0
 c1805f4:	e24cc001 	sub	ip, ip, #1
 c1805f8:	e59fb074 	ldr	fp, [pc, #116]	; c180674 <sobel+0xbc>
 c1805fc:	e080000c 	add	r0, r0, ip
 c180600:	e1a06005 	mov	r6, r5
 c180604:	e1a07005 	mov	r7, r5
 c180608:	e0854085 	add	r4, r5, r5, lsl #1
 c18060c:	e08b4104 	add	r4, fp, r4, lsl #2
 c180610:	e2444004 	sub	r4, r4, #4
 c180614:	e08b9105 	add	r9, fp, r5, lsl #2
 c180618:	e1a0c000 	mov	ip, r0
 c18061c:	e3a03000 	mov	r3, #0
 c180620:	e4dc2001 	ldrb	r2, [ip], #1
 c180624:	e7998003 	ldr	r8, [r9, r3]
 c180628:	e5b4a004 	ldr	sl, [r4, #4]!
 c18062c:	e283300c 	add	r3, r3, #12
 c180630:	e3530024 	cmp	r3, #36	; 0x24
 c180634:	e027729a 	mla	r7, sl, r2, r7
 c180638:	e0266298 	mla	r6, r8, r2, r6
 c18063c:	1afffff7 	bne	c180620 <sobel+0x68>
 c180640:	e2855001 	add	r5, r5, #1
 c180644:	e3550003 	cmp	r5, #3
 c180648:	e0800001 	add	r0, r0, r1
 c18064c:	1affffed 	bne	c180608 <sobel+0x50>
 c180650:	e3570000 	cmp	r7, #0
 c180654:	b2677000 	rsblt	r7, r7, #0
 c180658:	e3560000 	cmp	r6, #0
 c18065c:	b2666000 	rsblt	r6, r6, #0
 c180660:	e0870006 	add	r0, r7, r6
 c180664:	ea000000 	b	c18066c <sobel+0xb4>
 c180668:	e3a00000 	mov	r0, #0
 c18066c:	e8bd0ff0 	pop	{r4, r5, r6, r7, r8, r9, sl, fp}
 c180670:	e12fff1e 	bx	lr
 c180674:	0c0c0064 	.word	0x0c0c0064

0c180678 <non_max_sup>:
 c180678:	e12fff1e 	bx	lr
