   1              		.cpu arm7tdmi
   2              		.fpu softvfp
   3              		.eabi_attribute 20, 1
   4              		.eabi_attribute 21, 1
   5              		.eabi_attribute 23, 3
   6              		.eabi_attribute 24, 1
   7              		.eabi_attribute 25, 1
   8              		.eabi_attribute 26, 1
   9              		.eabi_attribute 30, 6
  10              		.eabi_attribute 18, 4
  11              		.file	"button.c"
  21              	.Ltext0:
  22              		.file 1 "../button.c"
 1728              		.align	2
 1729              		.global	read_button
 1731              	read_button:
 1732              	.LFB0:
   1:../button.c   **** /*-------------------------------------------------------------------
   2:../button.c   **** **
   3:../button.c   **** **  Fichero:
   4:../button.c   **** **    button.c
   5:../button.c   **** **
   6:../button.c   **** **    Estructura de Computadores
   7:../button.c   **** **    Dpto. de Arquitectura de Computadores y Automï¿½tica
   8:../button.c   **** **    Facultad de Informï¿½tica. Universidad Complutense de Madrid
   9:../button.c   **** **
  10:../button.c   **** **  Propï¿½sito:
  11:../button.c   **** **    Contiene las implementaciones de las funciones
  12:../button.c   **** **    para la gestiï¿½n de los pulsadores de la placa de prototipado
  13:../button.c   **** **
  14:../button.c   **** **  Notas de diseï¿½o:
  15:../button.c   **** **
  16:../button.c   **** **-----------------------------------------------------------------*/
  17:../button.c   **** 
  18:../button.c   **** #include "44b.h"
  19:../button.c   **** #include "utils.h"
  20:../button.c   **** #include "button.h"
  21:../button.c   **** #include "leds.h"
  22:../button.c   **** #include "gpio.h"
  23:../button.c   **** 
  24:../button.c   **** unsigned int read_button(void)
  25:../button.c   **** {
 1733              		.loc 1 25 0
 1734              		.cfi_startproc
 1735              		@ Function supports interworking.
 1736              		@ args = 0, pretend = 0, frame = 8
 1737              		@ frame_needed = 1, uses_anonymous_args = 0
 1738 0000 0DC0A0E1 		mov	ip, sp
 1739              	.LCFI0:
 1740              		.cfi_def_cfa_register 12
 1741 0004 00D82DE9 		stmfd	sp!, {fp, ip, lr, pc}
 1742 0008 04B04CE2 		sub	fp, ip, #4
 1743              		.cfi_offset 14, -8
 1744              		.cfi_offset 13, -12
 1745              		.cfi_offset 11, -16
 1746              	.LCFI1:
 1747              		.cfi_def_cfa 11, 4
 1748 000c 08D04DE2 		sub	sp, sp, #8
  26:../button.c   **** 	unsigned int buttons = 0;
 1749              		.loc 1 26 0
 1750 0010 0030A0E3 		mov	r3, #0
 1751 0014 10300BE5 		str	r3, [fp, #-16]
  27:../button.c   **** 	enum digital val;
  28:../button.c   **** 	//COMPLETAR utilizando el interfaz del puerto G de gpio.h
  29:../button.c   **** 	//tiene que leer los pines 6 y 7 del puerto G (portG_read) y devolver en la variable buttons
  30:../button.c   **** 	//un 0 si no hay ningún botón pulsado
  31:../button.c   **** 	//1 si se ha pulsado el botón 1
  32:../button.c   **** 	//2 si se ha pulsado el botón 2
  33:../button.c   **** 
  34:../button.c   **** 	portG_read(6, &val);
 1752              		.loc 1 34 0
 1753 0018 11304BE2 		sub	r3, fp, #17
 1754 001c 0600A0E3 		mov	r0, #6
 1755 0020 0310A0E1 		mov	r1, r3
 1756 0024 FEFFFFEB 		bl	portG_read
  35:../button.c   **** 	if (val == LOW)
 1757              		.loc 1 35 0
 1758 0028 11305BE5 		ldrb	r3, [fp, #-17]	@ zero_extendqisi2
 1759 002c 000053E3 		cmp	r3, #0
 1760 0030 0100001A 		bne	.L2
  36:../button.c   **** 		//buttons |= 0x1;
  37:../button.c   **** 		buttons = 1;
 1761              		.loc 1 37 0
 1762 0034 0130A0E3 		mov	r3, #1
 1763 0038 10300BE5 		str	r3, [fp, #-16]
 1764              	.L2:
  38:../button.c   **** 	portG_read(7, &val);
 1765              		.loc 1 38 0
 1766 003c 11304BE2 		sub	r3, fp, #17
 1767 0040 0700A0E3 		mov	r0, #7
 1768 0044 0310A0E1 		mov	r1, r3
 1769 0048 FEFFFFEB 		bl	portG_read
  39:../button.c   **** 	if (val == LOW)
 1770              		.loc 1 39 0
 1771 004c 11305BE5 		ldrb	r3, [fp, #-17]	@ zero_extendqisi2
 1772 0050 000053E3 		cmp	r3, #0
 1773 0054 0100001A 		bne	.L3
  40:../button.c   **** 		//buttons |= 0x2;
  41:../button.c   **** 	buttons = 2;
 1774              		.loc 1 41 0
 1775 0058 0230A0E3 		mov	r3, #2
 1776 005c 10300BE5 		str	r3, [fp, #-16]
 1777              	.L3:
  42:../button.c   **** 	return buttons;
 1778              		.loc 1 42 0
 1779 0060 10301BE5 		ldr	r3, [fp, #-16]
  43:../button.c   **** }
 1780              		.loc 1 43 0
 1781 0064 0300A0E1 		mov	r0, r3
 1782 0068 0CD04BE2 		sub	sp, fp, #12
 1783 006c 00689DE8 		ldmfd	sp, {fp, sp, lr}
 1784 0070 1EFF2FE1 		bx	lr
 1785              		.cfi_endproc
 1786              	.LFE0:
 1788              	.Letext0: