   1              		.cpu arm7tdmi
   2              		.fpu softvfp
   3              		.eabi_attribute 20, 1
   4              		.eabi_attribute 21, 1
   5              		.eabi_attribute 23, 3
   6              		.eabi_attribute 24, 1
   7              		.eabi_attribute 25, 1
   8              		.eabi_attribute 26, 1
   9              		.eabi_attribute 30, 6
  10              		.eabi_attribute 18, 4
  11              		.file	"gpio.c"
  21              	.Ltext0:
  22              		.file 1 "../gpio.c"
 1698              		.align	2
 1699              		.global	portB_conf
 1701              	portB_conf:
 1702              	.LFB0:
   1:../gpio.c     **** #include "44b.h"
   2:../gpio.c     **** #include "gpio.h"
   3:../gpio.c     **** 
   4:../gpio.c     **** /* Port B interface implementation */
   5:../gpio.c     **** 
   6:../gpio.c     **** int portB_conf(int pin, enum port_mode mode)
   7:../gpio.c     **** {
 1703              		.loc 1 7 0
 1704              		.cfi_startproc
 1705              		@ Function supports interworking.
 1706              		@ args = 0, pretend = 0, frame = 16
 1707              		@ frame_needed = 1, uses_anonymous_args = 0
 1708 0000 0DC0A0E1 		mov	ip, sp
 1709              	.LCFI0:
 1710              		.cfi_def_cfa_register 12
 1711 0004 00D82DE9 		stmfd	sp!, {fp, ip, lr, pc}
 1712 0008 04B04CE2 		sub	fp, ip, #4
 1713              		.cfi_offset 14, -8
 1714              		.cfi_offset 13, -12
 1715              		.cfi_offset 11, -16
 1716              	.LCFI1:
 1717              		.cfi_def_cfa 11, 4
 1718 000c 10D04DE2 		sub	sp, sp, #16
 1719 0010 18000BE5 		str	r0, [fp, #-24]
 1720 0014 0130A0E1 		mov	r3, r1
 1721 0018 19304BE5 		strb	r3, [fp, #-25]
   8:../gpio.c     **** 	int ret = 0;
 1722              		.loc 1 8 0
 1723 001c 0030A0E3 		mov	r3, #0
 1724 0020 10300BE5 		str	r3, [fp, #-16]
   9:../gpio.c     **** 	if (pin < 0 || pin > 10)
 1725              		.loc 1 9 0
 1726 0024 18301BE5 		ldr	r3, [fp, #-24]
 1727 0028 000053E3 		cmp	r3, #0
 1728 002c 020000BA 		blt	.L2
 1729              		.loc 1 9 0 is_stmt 0 discriminator 1
 1730 0030 18301BE5 		ldr	r3, [fp, #-24]
 1731 0034 0A0053E3 		cmp	r3, #10
 1732 0038 010000DA 		ble	.L3
 1733              	.L2:
  10:../gpio.c     **** 		return -1;
 1734              		.loc 1 10 0 is_stmt 1
 1735 003c 0030E0E3 		mvn	r3, #0
 1736 0040 1B0000EA 		b	.L4
 1737              	.L3:
  11:../gpio.c     **** 
  12:../gpio.c     **** 	if (mode == SIGOUT){
 1738              		.loc 1 12 0
 1739 0044 19305BE5 		ldrb	r3, [fp, #-25]	@ zero_extendqisi2
 1740 0048 020053E3 		cmp	r3, #2
 1741 004c 0800001A 		bne	.L5
  13:../gpio.c     **** 		rPCONB |=(0x1<<pin);
 1742              		.loc 1 13 0
 1743 0050 6C309FE5 		ldr	r3, .L8
 1744 0054 68209FE5 		ldr	r2, .L8
 1745 0058 001092E5 		ldr	r1, [r2, #0]
 1746 005c 0100A0E3 		mov	r0, #1
 1747 0060 18201BE5 		ldr	r2, [fp, #-24]
 1748 0064 1022A0E1 		mov	r2, r0, asl r2
 1749 0068 022081E1 		orr	r2, r1, r2
 1750 006c 002083E5 		str	r2, [r3, #0]
 1751 0070 0E0000EA 		b	.L6
 1752              	.L5:
  14:../gpio.c     **** 		//COMPLETAR: Configurar el pin del puerto B
  15:../gpio.c     **** 		//para que salga la senal correspondiente del controlador de memoria
  16:../gpio.c     **** 
  17:../gpio.c     **** 	}
  18:../gpio.c     **** 	else if (mode == OUTPUT){
 1753              		.loc 1 18 0
 1754 0074 19305BE5 		ldrb	r3, [fp, #-25]	@ zero_extendqisi2
 1755 0078 010053E3 		cmp	r3, #1
 1756 007c 0900001A 		bne	.L7
  19:../gpio.c     **** 		rPCONB &=~(0x1<<pin);
 1757              		.loc 1 19 0
 1758 0080 3C309FE5 		ldr	r3, .L8
 1759 0084 38209FE5 		ldr	r2, .L8
 1760 0088 001092E5 		ldr	r1, [r2, #0]
 1761 008c 0100A0E3 		mov	r0, #1
 1762 0090 18201BE5 		ldr	r2, [fp, #-24]
 1763 0094 1022A0E1 		mov	r2, r0, asl r2
 1764 0098 0220E0E1 		mvn	r2, r2
 1765 009c 022001E0 		and	r2, r1, r2
 1766 00a0 002083E5 		str	r2, [r3, #0]
 1767 00a4 010000EA 		b	.L6
 1768              	.L7:
  20:../gpio.c     **** 		///COMPLETAR: Configurar el pin del puerto B
  21:../gpio.c     **** 		//para que sea de salida
  22:../gpio.c     **** 
  23:../gpio.c     **** 	}
  24:../gpio.c     **** 	else
  25:../gpio.c     **** 		ret = -1;
 1769              		.loc 1 25 0
 1770 00a8 0030E0E3 		mvn	r3, #0
 1771 00ac 10300BE5 		str	r3, [fp, #-16]
 1772              	.L6:
  26:../gpio.c     **** 
  27:../gpio.c     **** 	return ret;
 1773              		.loc 1 27 0
 1774 00b0 10301BE5 		ldr	r3, [fp, #-16]
 1775              	.L4:
  28:../gpio.c     **** }
 1776              		.loc 1 28 0
 1777 00b4 0300A0E1 		mov	r0, r3
 1778 00b8 0CD04BE2 		sub	sp, fp, #12
 1779 00bc 00689DE8 		ldmfd	sp, {fp, sp, lr}
 1780 00c0 1EFF2FE1 		bx	lr
 1781              	.L9:
 1782              		.align	2
 1783              	.L8:
 1784 00c4 0800D201 		.word	30539784
 1785              		.cfi_endproc
 1786              	.LFE0:
 1788              		.align	2
 1789              		.global	portB_write
 1791              	portB_write:
 1792              	.LFB1:
  29:../gpio.c     **** 
  30:../gpio.c     **** int portB_write(int pin, enum digital val)
  31:../gpio.c     **** {
 1793              		.loc 1 31 0
 1794              		.cfi_startproc
 1795              		@ Function supports interworking.
 1796              		@ args = 0, pretend = 0, frame = 8
 1797              		@ frame_needed = 1, uses_anonymous_args = 0
 1798 00c8 0DC0A0E1 		mov	ip, sp
 1799              	.LCFI2:
 1800              		.cfi_def_cfa_register 12
 1801 00cc 00D82DE9 		stmfd	sp!, {fp, ip, lr, pc}
 1802 00d0 04B04CE2 		sub	fp, ip, #4
 1803              		.cfi_offset 14, -8
 1804              		.cfi_offset 13, -12
 1805              		.cfi_offset 11, -16
 1806              	.LCFI3:
 1807              		.cfi_def_cfa 11, 4
 1808 00d4 08D04DE2 		sub	sp, sp, #8
 1809 00d8 10000BE5 		str	r0, [fp, #-16]
 1810 00dc 0130A0E1 		mov	r3, r1
 1811 00e0 11304BE5 		strb	r3, [fp, #-17]
  32:../gpio.c     **** 	if (pin < 0 || pin > 10)
 1812              		.loc 1 32 0
 1813 00e4 10301BE5 		ldr	r3, [fp, #-16]
 1814 00e8 000053E3 		cmp	r3, #0
 1815 00ec 020000BA 		blt	.L11
 1816              		.loc 1 32 0 is_stmt 0 discriminator 1
 1817 00f0 10301BE5 		ldr	r3, [fp, #-16]
 1818 00f4 0A0053E3 		cmp	r3, #10
 1819 00f8 010000DA 		ble	.L12
 1820              	.L11:
  33:../gpio.c     **** 		return -1;
 1821              		.loc 1 33 0 is_stmt 1
 1822 00fc 0030E0E3 		mvn	r3, #0
 1823 0100 1A0000EA 		b	.L13
 1824              	.L12:
  34:../gpio.c     **** 
  35:../gpio.c     **** 	if (val < 0 || val > 1)
 1825              		.loc 1 35 0
 1826 0104 11305BE5 		ldrb	r3, [fp, #-17]	@ zero_extendqisi2
 1827 0108 010053E3 		cmp	r3, #1
 1828 010c 0100009A 		bls	.L14
  36:../gpio.c     **** 		return -1;
 1829              		.loc 1 36 0
 1830 0110 0030E0E3 		mvn	r3, #0
 1831 0114 150000EA 		b	.L13
 1832              	.L14:
  37:../gpio.c     **** 
  38:../gpio.c     **** 	if (val){
 1833              		.loc 1 38 0
 1834 0118 11305BE5 		ldrb	r3, [fp, #-17]	@ zero_extendqisi2
 1835 011c 000053E3 		cmp	r3, #0
 1836 0120 0800000A 		beq	.L15
  39:../gpio.c     **** 		//COMPLETAR: poner en el pin del puerto B
  40:../gpio.c     **** 		//el valor adecuado para que el led se apague
  41:../gpio.c     **** 		rPDATB |=(0x1<<pin);
 1837              		.loc 1 41 0
 1838 0124 54309FE5 		ldr	r3, .L17
 1839 0128 50209FE5 		ldr	r2, .L17
 1840 012c 001092E5 		ldr	r1, [r2, #0]
 1841 0130 0100A0E3 		mov	r0, #1
 1842 0134 10201BE5 		ldr	r2, [fp, #-16]
 1843 0138 1022A0E1 		mov	r2, r0, asl r2
 1844 013c 022081E1 		orr	r2, r1, r2
 1845 0140 002083E5 		str	r2, [r3, #0]
 1846 0144 080000EA 		b	.L16
 1847              	.L15:
  42:../gpio.c     **** 
  43:../gpio.c     **** 	}
  44:../gpio.c     **** 	else{
  45:../gpio.c     **** 		rPDATB &=~(0x1<<pin);
 1848              		.loc 1 45 0
 1849 0148 30309FE5 		ldr	r3, .L17
 1850 014c 2C209FE5 		ldr	r2, .L17
 1851 0150 001092E5 		ldr	r1, [r2, #0]
 1852 0154 0100A0E3 		mov	r0, #1
 1853 0158 10201BE5 		ldr	r2, [fp, #-16]
 1854 015c 1022A0E1 		mov	r2, r0, asl r2
 1855 0160 0220E0E1 		mvn	r2, r2
 1856 0164 022001E0 		and	r2, r1, r2
 1857 0168 002083E5 		str	r2, [r3, #0]
 1858              	.L16:
  46:../gpio.c     **** 		//COMPLETAR: poner en el pin del puerto B
  47:../gpio.c     **** 		//el valor adecuado para que el led se encienda
  48:../gpio.c     **** 
  49:../gpio.c     **** 
  50:../gpio.c     **** 	}
  51:../gpio.c     **** 	return 0;
 1859              		.loc 1 51 0
 1860 016c 0030A0E3 		mov	r3, #0
 1861              	.L13:
  52:../gpio.c     **** }
 1862              		.loc 1 52 0
 1863 0170 0300A0E1 		mov	r0, r3
 1864 0174 0CD04BE2 		sub	sp, fp, #12
 1865 0178 00689DE8 		ldmfd	sp, {fp, sp, lr}
 1866 017c 1EFF2FE1 		bx	lr
 1867              	.L18:
 1868              		.align	2
 1869              	.L17:
 1870 0180 0C00D201 		.word	30539788
 1871              		.cfi_endproc
 1872              	.LFE1:
 1874              		.align	2
 1875              		.global	portG_conf
 1877              	portG_conf:
 1878              	.LFB2:
  53:../gpio.c     **** 
  54:../gpio.c     **** /* Port G interface implementation */
  55:../gpio.c     **** 
  56:../gpio.c     **** int portG_conf(int pin, enum port_mode mode)
  57:../gpio.c     **** {
 1879              		.loc 1 57 0
 1880              		.cfi_startproc
 1881              		@ Function supports interworking.
 1882              		@ args = 0, pretend = 0, frame = 16
 1883              		@ frame_needed = 1, uses_anonymous_args = 0
 1884 0184 0DC0A0E1 		mov	ip, sp
 1885              	.LCFI4:
 1886              		.cfi_def_cfa_register 12
 1887 0188 00D82DE9 		stmfd	sp!, {fp, ip, lr, pc}
 1888 018c 04B04CE2 		sub	fp, ip, #4
 1889              		.cfi_offset 14, -8
 1890              		.cfi_offset 13, -12
 1891              		.cfi_offset 11, -16
 1892              	.LCFI5:
 1893              		.cfi_def_cfa 11, 4
 1894 0190 10D04DE2 		sub	sp, sp, #16
 1895 0194 18000BE5 		str	r0, [fp, #-24]
 1896 0198 0130A0E1 		mov	r3, r1
 1897 019c 19304BE5 		strb	r3, [fp, #-25]
  58:../gpio.c     **** 	//La variable pos indica el primer bit del registro de control del puerto G que corresponde al pin
  59:../gpio.c     **** 	int pos  = pin*2;
 1898              		.loc 1 59 0
 1899 01a0 18301BE5 		ldr	r3, [fp, #-24]
 1900 01a4 8330A0E1 		mov	r3, r3, asl #1
 1901 01a8 10300BE5 		str	r3, [fp, #-16]
  60:../gpio.c     **** 
  61:../gpio.c     **** 	if (pin < 0 || pin > 7)
 1902              		.loc 1 61 0
 1903 01ac 18301BE5 		ldr	r3, [fp, #-24]
 1904 01b0 000053E3 		cmp	r3, #0
 1905 01b4 020000BA 		blt	.L20
 1906              		.loc 1 61 0 is_stmt 0 discriminator 1
 1907 01b8 18301BE5 		ldr	r3, [fp, #-24]
 1908 01bc 070053E3 		cmp	r3, #7
 1909 01c0 010000DA 		ble	.L21
 1910              	.L20:
  62:../gpio.c     **** 		return -1;
 1911              		.loc 1 62 0 is_stmt 1
 1912 01c4 0030E0E3 		mvn	r3, #0
 1913 01c8 410000EA 		b	.L22
 1914              	.L21:
  63:../gpio.c     **** 
  64:../gpio.c     **** 	switch (mode) {
 1915              		.loc 1 64 0
 1916 01cc 19305BE5 		ldrb	r3, [fp, #-25]	@ zero_extendqisi2
 1917 01d0 030053E3 		cmp	r3, #3
 1918 01d4 03F19F97 		ldrls	pc, [pc, r3, asl #2]
 1919 01d8 3A0000EA 		b	.L23
 1920              	.L28:
 1921 01dc EC010000 		.word	.L24
 1922 01e0 14020000 		.word	.L25
 1923 01e4 5C020000 		.word	.L26
 1924 01e8 A4020000 		.word	.L27
 1925              	.L24:
  65:../gpio.c     **** 		case INPUT:
  66:../gpio.c     **** 
  67:../gpio.c     **** 			//COMPLETAR: Configurar el pin del puerto G
  68:../gpio.c     **** 			//para que sea de entrada
  69:../gpio.c     **** 			rPCONG &= ~(0x3<<pos);
 1926              		.loc 1 69 0
 1927 01ec F0309FE5 		ldr	r3, .L30
 1928 01f0 EC209FE5 		ldr	r2, .L30
 1929 01f4 001092E5 		ldr	r1, [r2, #0]
 1930 01f8 0300A0E3 		mov	r0, #3
 1931 01fc 10201BE5 		ldr	r2, [fp, #-16]
 1932 0200 1022A0E1 		mov	r2, r0, asl r2
 1933 0204 0220E0E1 		mvn	r2, r2
 1934 0208 022001E0 		and	r2, r1, r2
 1935 020c 002083E5 		str	r2, [r3, #0]
  70:../gpio.c     **** 
  71:../gpio.c     **** 			break;
 1936              		.loc 1 71 0
 1937 0210 2E0000EA 		b	.L29
 1938              	.L25:
  72:../gpio.c     **** 		case OUTPUT:
  73:../gpio.c     **** 			//COMPLETAR: Configurar el pin del puerto G
  74:../gpio.c     **** 			//para que sea de salida
  75:../gpio.c     **** 			rPCONG &= ~(0x3<<pos);
 1939              		.loc 1 75 0
 1940 0214 C8309FE5 		ldr	r3, .L30
 1941 0218 C4209FE5 		ldr	r2, .L30
 1942 021c 001092E5 		ldr	r1, [r2, #0]
 1943 0220 0300A0E3 		mov	r0, #3
 1944 0224 10201BE5 		ldr	r2, [fp, #-16]
 1945 0228 1022A0E1 		mov	r2, r0, asl r2
 1946 022c 0220E0E1 		mvn	r2, r2
 1947 0230 022001E0 		and	r2, r1, r2
 1948 0234 002083E5 		str	r2, [r3, #0]
  76:../gpio.c     **** 			rPCONG |= (0x1<<pos);
 1949              		.loc 1 76 0
 1950 0238 A4309FE5 		ldr	r3, .L30
 1951 023c A0209FE5 		ldr	r2, .L30
 1952 0240 001092E5 		ldr	r1, [r2, #0]
 1953 0244 0100A0E3 		mov	r0, #1
 1954 0248 10201BE5 		ldr	r2, [fp, #-16]
 1955 024c 1022A0E1 		mov	r2, r0, asl r2
 1956 0250 022081E1 		orr	r2, r1, r2
 1957 0254 002083E5 		str	r2, [r3, #0]
  77:../gpio.c     **** 
  78:../gpio.c     **** 			break;
 1958              		.loc 1 78 0
 1959 0258 1C0000EA 		b	.L29
 1960              	.L26:
  79:../gpio.c     **** 		case SIGOUT:
  80:../gpio.c     **** 			//COMPLETAR: Configurar el pin del puerto G
  81:../gpio.c     **** 			//para que salga la señal interna correspondiente
  82:../gpio.c     **** 			rPCONG &= ~(0x3<<pos);
 1961              		.loc 1 82 0
 1962 025c 80309FE5 		ldr	r3, .L30
 1963 0260 7C209FE5 		ldr	r2, .L30
 1964 0264 001092E5 		ldr	r1, [r2, #0]
 1965 0268 0300A0E3 		mov	r0, #3
 1966 026c 10201BE5 		ldr	r2, [fp, #-16]
 1967 0270 1022A0E1 		mov	r2, r0, asl r2
 1968 0274 0220E0E1 		mvn	r2, r2
 1969 0278 022001E0 		and	r2, r1, r2
 1970 027c 002083E5 		str	r2, [r3, #0]
  83:../gpio.c     **** 			rPCONG|= (0x2<<pos);
 1971              		.loc 1 83 0
 1972 0280 5C309FE5 		ldr	r3, .L30
 1973 0284 58209FE5 		ldr	r2, .L30
 1974 0288 001092E5 		ldr	r1, [r2, #0]
 1975 028c 0200A0E3 		mov	r0, #2
 1976 0290 10201BE5 		ldr	r2, [fp, #-16]
 1977 0294 1022A0E1 		mov	r2, r0, asl r2
 1978 0298 022081E1 		orr	r2, r1, r2
 1979 029c 002083E5 		str	r2, [r3, #0]
  84:../gpio.c     **** 
  85:../gpio.c     **** 			break;
 1980              		.loc 1 85 0
 1981 02a0 0A0000EA 		b	.L29
 1982              	.L27:
  86:../gpio.c     **** 		case EINT:
  87:../gpio.c     **** 			//COMPLETAR: Configurar el pin del puerto G
  88:../gpio.c     **** 			//para habilitar la generación de interrupciones externas
  89:../gpio.c     **** 			rPCONG |= (0x3 << pos);
 1983              		.loc 1 89 0
 1984 02a4 38309FE5 		ldr	r3, .L30
 1985 02a8 34209FE5 		ldr	r2, .L30
 1986 02ac 001092E5 		ldr	r1, [r2, #0]
 1987 02b0 0300A0E3 		mov	r0, #3
 1988 02b4 10201BE5 		ldr	r2, [fp, #-16]
 1989 02b8 1022A0E1 		mov	r2, r0, asl r2
 1990 02bc 022081E1 		orr	r2, r1, r2
 1991 02c0 002083E5 		str	r2, [r3, #0]
  90:../gpio.c     **** 
  91:../gpio.c     **** 			break;
 1992              		.loc 1 91 0
 1993 02c4 010000EA 		b	.L29
 1994              	.L23:
  92:../gpio.c     **** 		default:
  93:../gpio.c     **** 			return -1;
 1995              		.loc 1 93 0
 1996 02c8 0030E0E3 		mvn	r3, #0
 1997 02cc 000000EA 		b	.L22
 1998              	.L29:
  94:../gpio.c     **** 	}
  95:../gpio.c     **** 
  96:../gpio.c     **** 	return 0;
 1999              		.loc 1 96 0
 2000 02d0 0030A0E3 		mov	r3, #0
 2001              	.L22:
  97:../gpio.c     **** }
 2002              		.loc 1 97 0
 2003 02d4 0300A0E1 		mov	r0, r3
 2004 02d8 0CD04BE2 		sub	sp, fp, #12
 2005 02dc 00689DE8 		ldmfd	sp, {fp, sp, lr}
 2006 02e0 1EFF2FE1 		bx	lr
 2007              	.L31:
 2008              		.align	2
 2009              	.L30:
 2010 02e4 4000D201 		.word	30539840
 2011              		.cfi_endproc
 2012              	.LFE2:
 2014              		.align	2
 2015              		.global	portG_eint_trig
 2017              	portG_eint_trig:
 2018              	.LFB3:
  98:../gpio.c     **** 
  99:../gpio.c     **** int portG_eint_trig(int pin, enum trigger trig)
 100:../gpio.c     **** {
 2019              		.loc 1 100 0
 2020              		.cfi_startproc
 2021              		@ Function supports interworking.
 2022              		@ args = 0, pretend = 0, frame = 16
 2023              		@ frame_needed = 1, uses_anonymous_args = 0
 2024 02e8 0DC0A0E1 		mov	ip, sp
 2025              	.LCFI6:
 2026              		.cfi_def_cfa_register 12
 2027 02ec 00D82DE9 		stmfd	sp!, {fp, ip, lr, pc}
 2028 02f0 04B04CE2 		sub	fp, ip, #4
 2029              		.cfi_offset 14, -8
 2030              		.cfi_offset 13, -12
 2031              		.cfi_offset 11, -16
 2032              	.LCFI7:
 2033              		.cfi_def_cfa 11, 4
 2034 02f4 10D04DE2 		sub	sp, sp, #16
 2035 02f8 18000BE5 		str	r0, [fp, #-24]
 2036 02fc 0130A0E1 		mov	r3, r1
 2037 0300 19304BE5 		strb	r3, [fp, #-25]
 101:../gpio.c     **** 	//La variable pos indica el primer bit del registro EXTINT del puerto G que corresponde al pin
 102:../gpio.c     **** 	int pos = pin*4;
 2038              		.loc 1 102 0
 2039 0304 18301BE5 		ldr	r3, [fp, #-24]
 2040 0308 0331A0E1 		mov	r3, r3, asl #2
 2041 030c 10300BE5 		str	r3, [fp, #-16]
 103:../gpio.c     **** 
 104:../gpio.c     **** 	if (pin < 0 || pin > 7)
 2042              		.loc 1 104 0
 2043 0310 18301BE5 		ldr	r3, [fp, #-24]
 2044 0314 000053E3 		cmp	r3, #0
 2045 0318 020000BA 		blt	.L33
 2046              		.loc 1 104 0 is_stmt 0 discriminator 1
 2047 031c 18301BE5 		ldr	r3, [fp, #-24]
 2048 0320 070053E3 		cmp	r3, #7
 2049 0324 010000DA 		ble	.L34
 2050              	.L33:
 105:../gpio.c     **** 		return -1;
 2051              		.loc 1 105 0 is_stmt 1
 2052 0328 0030E0E3 		mvn	r3, #0
 2053 032c 5D0000EA 		b	.L35
 2054              	.L34:
 106:../gpio.c     **** 
 107:../gpio.c     **** 	switch (trig) {
 2055              		.loc 1 107 0
 2056 0330 19305BE5 		ldrb	r3, [fp, #-25]	@ zero_extendqisi2
 2057 0334 040053E3 		cmp	r3, #4
 2058 0338 03F19F97 		ldrls	pc, [pc, r3, asl #2]
 2059 033c 560000EA 		b	.L36
 2060              	.L42:
 2061 0340 54030000 		.word	.L37
 2062 0344 7C030000 		.word	.L38
 2063 0348 C4030000 		.word	.L39
 2064 034c 0C040000 		.word	.L40
 2065 0350 54040000 		.word	.L41
 2066              	.L37:
 108:../gpio.c     **** 		case LLOW:
 109:../gpio.c     **** 			// COMPLETAR: configurar el pin del puerto G para que genere interrupciones externas por nivel b
 110:../gpio.c     **** 			rEXTINT &= ~(0x7<<pos);
 2067              		.loc 1 110 0
 2068 0354 5C319FE5 		ldr	r3, .L44
 2069 0358 58219FE5 		ldr	r2, .L44
 2070 035c 001092E5 		ldr	r1, [r2, #0]
 2071 0360 0700A0E3 		mov	r0, #7
 2072 0364 10201BE5 		ldr	r2, [fp, #-16]
 2073 0368 1022A0E1 		mov	r2, r0, asl r2
 2074 036c 0220E0E1 		mvn	r2, r2
 2075 0370 022001E0 		and	r2, r1, r2
 2076 0374 002083E5 		str	r2, [r3, #0]
 111:../gpio.c     **** 			break;
 2077              		.loc 1 111 0
 2078 0378 490000EA 		b	.L43
 2079              	.L38:
 112:../gpio.c     **** 		case LHIGH:
 113:../gpio.c     **** 			// COMPLETAR: configurar el pin del puerto G para que genere interrupciones externas por nivel a
 114:../gpio.c     **** 			rEXTINT &= ~(0x7<<pos);
 2080              		.loc 1 114 0
 2081 037c 34319FE5 		ldr	r3, .L44
 2082 0380 30219FE5 		ldr	r2, .L44
 2083 0384 001092E5 		ldr	r1, [r2, #0]
 2084 0388 0700A0E3 		mov	r0, #7
 2085 038c 10201BE5 		ldr	r2, [fp, #-16]
 2086 0390 1022A0E1 		mov	r2, r0, asl r2
 2087 0394 0220E0E1 		mvn	r2, r2
 2088 0398 022001E0 		and	r2, r1, r2
 2089 039c 002083E5 		str	r2, [r3, #0]
 115:../gpio.c     **** 			rEXTINT |= (0x1<<pos);
 2090              		.loc 1 115 0
 2091 03a0 10319FE5 		ldr	r3, .L44
 2092 03a4 0C219FE5 		ldr	r2, .L44
 2093 03a8 001092E5 		ldr	r1, [r2, #0]
 2094 03ac 0100A0E3 		mov	r0, #1
 2095 03b0 10201BE5 		ldr	r2, [fp, #-16]
 2096 03b4 1022A0E1 		mov	r2, r0, asl r2
 2097 03b8 022081E1 		orr	r2, r1, r2
 2098 03bc 002083E5 		str	r2, [r3, #0]
 116:../gpio.c     **** 
 117:../gpio.c     **** 			break;
 2099              		.loc 1 117 0
 2100 03c0 370000EA 		b	.L43
 2101              	.L39:
 118:../gpio.c     **** 		case FALLING:
 119:../gpio.c     **** 			// COMPLETAR: configurar el pin del puerto G para que el pin genere interrupciones externas por 
 120:../gpio.c     **** 			rEXTINT &= ~(0x7<<pos);
 2102              		.loc 1 120 0
 2103 03c4 EC309FE5 		ldr	r3, .L44
 2104 03c8 E8209FE5 		ldr	r2, .L44
 2105 03cc 001092E5 		ldr	r1, [r2, #0]
 2106 03d0 0700A0E3 		mov	r0, #7
 2107 03d4 10201BE5 		ldr	r2, [fp, #-16]
 2108 03d8 1022A0E1 		mov	r2, r0, asl r2
 2109 03dc 0220E0E1 		mvn	r2, r2
 2110 03e0 022001E0 		and	r2, r1, r2
 2111 03e4 002083E5 		str	r2, [r3, #0]
 121:../gpio.c     **** 			rEXTINT |= (0x2<<pos);
 2112              		.loc 1 121 0
 2113 03e8 C8309FE5 		ldr	r3, .L44
 2114 03ec C4209FE5 		ldr	r2, .L44
 2115 03f0 001092E5 		ldr	r1, [r2, #0]
 2116 03f4 0200A0E3 		mov	r0, #2
 2117 03f8 10201BE5 		ldr	r2, [fp, #-16]
 2118 03fc 1022A0E1 		mov	r2, r0, asl r2
 2119 0400 022081E1 		orr	r2, r1, r2
 2120 0404 002083E5 		str	r2, [r3, #0]
 122:../gpio.c     **** 
 123:../gpio.c     **** 			break;
 2121              		.loc 1 123 0
 2122 0408 250000EA 		b	.L43
 2123              	.L40:
 124:../gpio.c     **** 		case RISING:
 125:../gpio.c     **** 			// COMPLETAR: configurar el pin del puerto G para que el pin genere interrupciones externas por 
 126:../gpio.c     **** 			rEXTINT &= ~(0x7<<pos);
 2124              		.loc 1 126 0
 2125 040c A4309FE5 		ldr	r3, .L44
 2126 0410 A0209FE5 		ldr	r2, .L44
 2127 0414 001092E5 		ldr	r1, [r2, #0]
 2128 0418 0700A0E3 		mov	r0, #7
 2129 041c 10201BE5 		ldr	r2, [fp, #-16]
 2130 0420 1022A0E1 		mov	r2, r0, asl r2
 2131 0424 0220E0E1 		mvn	r2, r2
 2132 0428 022001E0 		and	r2, r1, r2
 2133 042c 002083E5 		str	r2, [r3, #0]
 127:../gpio.c     **** 			rEXTINT |= (0x4<<pos);
 2134              		.loc 1 127 0
 2135 0430 80309FE5 		ldr	r3, .L44
 2136 0434 7C209FE5 		ldr	r2, .L44
 2137 0438 001092E5 		ldr	r1, [r2, #0]
 2138 043c 0400A0E3 		mov	r0, #4
 2139 0440 10201BE5 		ldr	r2, [fp, #-16]
 2140 0444 1022A0E1 		mov	r2, r0, asl r2
 2141 0448 022081E1 		orr	r2, r1, r2
 2142 044c 002083E5 		str	r2, [r3, #0]
 128:../gpio.c     **** 
 129:../gpio.c     **** 			break;
 2143              		.loc 1 129 0
 2144 0450 130000EA 		b	.L43
 2145              	.L41:
 130:../gpio.c     **** 		case EDGE:
 131:../gpio.c     **** 			// COMPLETAR: configurar el pin del puerto G para que el pin genere interrupciones externas por 
 132:../gpio.c     **** 			rEXTINT &= ~(0x7<<pos);
 2146              		.loc 1 132 0
 2147 0454 5C309FE5 		ldr	r3, .L44
 2148 0458 58209FE5 		ldr	r2, .L44
 2149 045c 001092E5 		ldr	r1, [r2, #0]
 2150 0460 0700A0E3 		mov	r0, #7
 2151 0464 10201BE5 		ldr	r2, [fp, #-16]
 2152 0468 1022A0E1 		mov	r2, r0, asl r2
 2153 046c 0220E0E1 		mvn	r2, r2
 2154 0470 022001E0 		and	r2, r1, r2
 2155 0474 002083E5 		str	r2, [r3, #0]
 133:../gpio.c     **** 			rEXTINT |= (0x6<<pos);
 2156              		.loc 1 133 0
 2157 0478 38309FE5 		ldr	r3, .L44
 2158 047c 34209FE5 		ldr	r2, .L44
 2159 0480 001092E5 		ldr	r1, [r2, #0]
 2160 0484 0600A0E3 		mov	r0, #6
 2161 0488 10201BE5 		ldr	r2, [fp, #-16]
 2162 048c 1022A0E1 		mov	r2, r0, asl r2
 2163 0490 022081E1 		orr	r2, r1, r2
 2164 0494 002083E5 		str	r2, [r3, #0]
 134:../gpio.c     **** 
 135:../gpio.c     **** 			break;
 2165              		.loc 1 135 0
 2166 0498 010000EA 		b	.L43
 2167              	.L36:
 136:../gpio.c     **** 		default:
 137:../gpio.c     **** 			return -1;
 2168              		.loc 1 137 0
 2169 049c 0030E0E3 		mvn	r3, #0
 2170 04a0 000000EA 		b	.L35
 2171              	.L43:
 138:../gpio.c     **** 	}
 139:../gpio.c     **** 	return 0;
 2172              		.loc 1 139 0
 2173 04a4 0030A0E3 		mov	r3, #0
 2174              	.L35:
 140:../gpio.c     **** }
 2175              		.loc 1 140 0
 2176 04a8 0300A0E1 		mov	r0, r3
 2177 04ac 0CD04BE2 		sub	sp, fp, #12
 2178 04b0 00689DE8 		ldmfd	sp, {fp, sp, lr}
 2179 04b4 1EFF2FE1 		bx	lr
 2180              	.L45:
 2181              		.align	2
 2182              	.L44:
 2183 04b8 5000D201 		.word	30539856
 2184              		.cfi_endproc
 2185              	.LFE3:
 2187              		.align	2
 2188              		.global	portG_read
 2190              	portG_read:
 2191              	.LFB4:
 141:../gpio.c     **** 
 142:../gpio.c     **** 
 143:../gpio.c     **** int portG_read(int pin, enum digital* val)
 144:../gpio.c     **** {
 2192              		.loc 1 144 0
 2193              		.cfi_startproc
 2194              		@ Function supports interworking.
 2195              		@ args = 0, pretend = 0, frame = 16
 2196              		@ frame_needed = 1, uses_anonymous_args = 0
 2197 04bc 0DC0A0E1 		mov	ip, sp
 2198              	.LCFI8:
 2199              		.cfi_def_cfa_register 12
 2200 04c0 00D82DE9 		stmfd	sp!, {fp, ip, lr, pc}
 2201 04c4 04B04CE2 		sub	fp, ip, #4
 2202              		.cfi_offset 14, -8
 2203              		.cfi_offset 13, -12
 2204              		.cfi_offset 11, -16
 2205              	.LCFI9:
 2206              		.cfi_def_cfa 11, 4
 2207 04c8 10D04DE2 		sub	sp, sp, #16
 2208 04cc 18000BE5 		str	r0, [fp, #-24]
 2209 04d0 1C100BE5 		str	r1, [fp, #-28]
 145:../gpio.c     **** 	int pos = pin*2;
 2210              		.loc 1 145 0
 2211 04d4 18301BE5 		ldr	r3, [fp, #-24]
 2212 04d8 8330A0E1 		mov	r3, r3, asl #1
 2213 04dc 10300BE5 		str	r3, [fp, #-16]
 146:../gpio.c     **** 
 147:../gpio.c     **** 	if (pin < 0 || pin > 7)
 2214              		.loc 1 147 0
 2215 04e0 18301BE5 		ldr	r3, [fp, #-24]
 2216 04e4 000053E3 		cmp	r3, #0
 2217 04e8 020000BA 		blt	.L47
 2218              		.loc 1 147 0 is_stmt 0 discriminator 1
 2219 04ec 18301BE5 		ldr	r3, [fp, #-24]
 2220 04f0 070053E3 		cmp	r3, #7
 2221 04f4 010000DA 		ble	.L48
 2222              	.L47:
 148:../gpio.c     **** 		return -1;
 2223              		.loc 1 148 0 is_stmt 1
 2224 04f8 0030E0E3 		mvn	r3, #0
 2225 04fc 190000EA 		b	.L49
 2226              	.L48:
 149:../gpio.c     **** 
 150:../gpio.c     **** 	if (rPCONG & (0x3 << pos))
 2227              		.loc 1 150 0
 2228 0500 70309FE5 		ldr	r3, .L53
 2229 0504 002093E5 		ldr	r2, [r3, #0]
 2230 0508 0310A0E3 		mov	r1, #3
 2231 050c 10301BE5 		ldr	r3, [fp, #-16]
 2232 0510 1133A0E1 		mov	r3, r1, asl r3
 2233 0514 033002E0 		and	r3, r2, r3
 2234 0518 000053E3 		cmp	r3, #0
 2235 051c 0100000A 		beq	.L50
 151:../gpio.c     **** 		return -1;
 2236              		.loc 1 151 0
 2237 0520 0030E0E3 		mvn	r3, #0
 2238 0524 0F0000EA 		b	.L49
 2239              	.L50:
 152:../gpio.c     **** 	//COMPLETAR la condicion del if: comprobar si el pin del registro de datos del puerto G es un 1)
 153:../gpio.c     **** 
 154:../gpio.c     **** 	if (rPDATG & (0x3 << pos))
 2240              		.loc 1 154 0
 2241 0528 4C309FE5 		ldr	r3, .L53+4
 2242 052c 002093E5 		ldr	r2, [r3, #0]
 2243 0530 0310A0E3 		mov	r1, #3
 2244 0534 10301BE5 		ldr	r3, [fp, #-16]
 2245 0538 1133A0E1 		mov	r3, r1, asl r3
 2246 053c 033002E0 		and	r3, r2, r3
 2247 0540 000053E3 		cmp	r3, #0
 2248 0544 0300000A 		beq	.L51
 155:../gpio.c     **** 		*val=HIGH;
 2249              		.loc 1 155 0
 2250 0548 1C301BE5 		ldr	r3, [fp, #-28]
 2251 054c 0120A0E3 		mov	r2, #1
 2252 0550 0020C3E5 		strb	r2, [r3, #0]
 2253 0554 020000EA 		b	.L52
 2254              	.L51:
 156:../gpio.c     **** 	else
 157:../gpio.c     **** 		*val=LOW;
 2255              		.loc 1 157 0
 2256 0558 1C301BE5 		ldr	r3, [fp, #-28]
 2257 055c 0020A0E3 		mov	r2, #0
 2258 0560 0020C3E5 		strb	r2, [r3, #0]
 2259              	.L52:
 158:../gpio.c     **** 
 159:../gpio.c     **** 	return 0;
 2260              		.loc 1 159 0
 2261 0564 0030A0E3 		mov	r3, #0
 2262              	.L49:
 160:../gpio.c     **** }
 2263              		.loc 1 160 0
 2264 0568 0300A0E1 		mov	r0, r3
 2265 056c 0CD04BE2 		sub	sp, fp, #12
 2266 0570 00689DE8 		ldmfd	sp, {fp, sp, lr}
 2267 0574 1EFF2FE1 		bx	lr
 2268              	.L54:
 2269              		.align	2
 2270              	.L53:
 2271 0578 4000D201 		.word	30539840
 2272 057c 4400D201 		.word	30539844
 2273              		.cfi_endproc
 2274              	.LFE4:
 2276              		.align	2
 2277              		.global	portG_conf_pup
 2279              	portG_conf_pup:
 2280              	.LFB5:
 161:../gpio.c     **** 
 162:../gpio.c     **** int portG_conf_pup(int pin, enum enable st)
 163:../gpio.c     **** {
 2281              		.loc 1 163 0
 2282              		.cfi_startproc
 2283              		@ Function supports interworking.
 2284              		@ args = 0, pretend = 0, frame = 8
 2285              		@ frame_needed = 1, uses_anonymous_args = 0
 2286 0580 0DC0A0E1 		mov	ip, sp
 2287              	.LCFI10:
 2288              		.cfi_def_cfa_register 12
 2289 0584 00D82DE9 		stmfd	sp!, {fp, ip, lr, pc}
 2290 0588 04B04CE2 		sub	fp, ip, #4
 2291              		.cfi_offset 14, -8
 2292              		.cfi_offset 13, -12
 2293              		.cfi_offset 11, -16
 2294              	.LCFI11:
 2295              		.cfi_def_cfa 11, 4
 2296 058c 08D04DE2 		sub	sp, sp, #8
 2297 0590 10000BE5 		str	r0, [fp, #-16]
 2298 0594 0130A0E1 		mov	r3, r1
 2299 0598 11304BE5 		strb	r3, [fp, #-17]
 164:../gpio.c     **** 	if (pin < 0 || pin > 7)
 2300              		.loc 1 164 0
 2301 059c 10301BE5 		ldr	r3, [fp, #-16]
 2302 05a0 000053E3 		cmp	r3, #0
 2303 05a4 020000BA 		blt	.L56
 2304              		.loc 1 164 0 is_stmt 0 discriminator 1
 2305 05a8 10301BE5 		ldr	r3, [fp, #-16]
 2306 05ac 070053E3 		cmp	r3, #7
 2307 05b0 010000DA 		ble	.L57
 2308              	.L56:
 165:../gpio.c     **** 		return -1;
 2309              		.loc 1 165 0 is_stmt 1
 2310 05b4 0030E0E3 		mvn	r3, #0
 2311 05b8 1D0000EA 		b	.L58
 2312              	.L57:
 166:../gpio.c     **** 
 167:../gpio.c     **** 	if (st != ENABLE && st != DISABLE)
 2313              		.loc 1 167 0
 2314 05bc 11305BE5 		ldrb	r3, [fp, #-17]	@ zero_extendqisi2
 2315 05c0 010053E3 		cmp	r3, #1
 2316 05c4 0400000A 		beq	.L59
 2317              		.loc 1 167 0 is_stmt 0 discriminator 1
 2318 05c8 11305BE5 		ldrb	r3, [fp, #-17]	@ zero_extendqisi2
 2319 05cc 000053E3 		cmp	r3, #0
 2320 05d0 0100000A 		beq	.L59
 168:../gpio.c     **** 		return -1;
 2321              		.loc 1 168 0 is_stmt 1
 2322 05d4 0030E0E3 		mvn	r3, #0
 2323 05d8 150000EA 		b	.L58
 2324              	.L59:
 169:../gpio.c     **** 
 170:../gpio.c     **** 	if (st == ENABLE){
 2325              		.loc 1 170 0
 2326 05dc 11305BE5 		ldrb	r3, [fp, #-17]	@ zero_extendqisi2
 2327 05e0 010053E3 		cmp	r3, #1
 2328 05e4 0900001A 		bne	.L60
 171:../gpio.c     **** 		rPUPG &=~(0x1<<pin);
 2329              		.loc 1 171 0
 2330 05e8 54309FE5 		ldr	r3, .L62
 2331 05ec 50209FE5 		ldr	r2, .L62
 2332 05f0 001092E5 		ldr	r1, [r2, #0]
 2333 05f4 0100A0E3 		mov	r0, #1
 2334 05f8 10201BE5 		ldr	r2, [fp, #-16]
 2335 05fc 1022A0E1 		mov	r2, r0, asl r2
 2336 0600 0220E0E1 		mvn	r2, r2
 2337 0604 022001E0 		and	r2, r1, r2
 2338 0608 002083E5 		str	r2, [r3, #0]
 2339 060c 070000EA 		b	.L61
 2340              	.L60:
 172:../gpio.c     **** 		//COMPLETAR: activar la resistencia de pull-up del pin del puerto G
 173:../gpio.c     **** 
 174:../gpio.c     **** 	}
 175:../gpio.c     **** 	else{
 176:../gpio.c     **** 		rPUPG |=(0x1<<pin);
 2341              		.loc 1 176 0
 2342 0610 2C309FE5 		ldr	r3, .L62
 2343 0614 28209FE5 		ldr	r2, .L62
 2344 0618 001092E5 		ldr	r1, [r2, #0]
 2345 061c 0100A0E3 		mov	r0, #1
 2346 0620 10201BE5 		ldr	r2, [fp, #-16]
 2347 0624 1022A0E1 		mov	r2, r0, asl r2
 2348 0628 022081E1 		orr	r2, r1, r2
 2349 062c 002083E5 		str	r2, [r3, #0]
 2350              	.L61:
 177:../gpio.c     **** 		//COMPLETAR: desactivar la resistencia de pull-up del pin del puerto G
 178:../gpio.c     **** 
 179:../gpio.c     **** 	}
 180:../gpio.c     **** 	return 0;
 2351              		.loc 1 180 0
 2352 0630 0030A0E3 		mov	r3, #0
 2353              	.L58:
 181:../gpio.c     **** }
 2354              		.loc 1 181 0
 2355 0634 0300A0E1 		mov	r0, r3
 2356 0638 0CD04BE2 		sub	sp, fp, #12
 2357 063c 00689DE8 		ldmfd	sp, {fp, sp, lr}
 2358 0640 1EFF2FE1 		bx	lr
 2359              	.L63:
 2360              		.align	2
 2361              	.L62:
 2362 0644 4800D201 		.word	30539848
 2363              		.cfi_endproc
 2364              	.LFE5:
 2366              		.align	2
 2367              		.global	portG_write
 2369              	portG_write:
 2370              	.LFB6:
 182:../gpio.c     **** 
 183:../gpio.c     **** 
 184:../gpio.c     **** int portG_write(int pin, enum digital val)
 185:../gpio.c     **** {
 2371              		.loc 1 185 0
 2372              		.cfi_startproc
 2373              		@ Function supports interworking.
 2374              		@ args = 0, pretend = 0, frame = 16
 2375              		@ frame_needed = 1, uses_anonymous_args = 0
 2376 0648 0DC0A0E1 		mov	ip, sp
 2377              	.LCFI12:
 2378              		.cfi_def_cfa_register 12
 2379 064c 00D82DE9 		stmfd	sp!, {fp, ip, lr, pc}
 2380 0650 04B04CE2 		sub	fp, ip, #4
 2381              		.cfi_offset 14, -8
 2382              		.cfi_offset 13, -12
 2383              		.cfi_offset 11, -16
 2384              	.LCFI13:
 2385              		.cfi_def_cfa 11, 4
 2386 0654 10D04DE2 		sub	sp, sp, #16
 2387 0658 18000BE5 		str	r0, [fp, #-24]
 2388 065c 0130A0E1 		mov	r3, r1
 2389 0660 19304BE5 		strb	r3, [fp, #-25]
 186:../gpio.c     **** 	int pos = pin*2;
 2390              		.loc 1 186 0
 2391 0664 18301BE5 		ldr	r3, [fp, #-24]
 2392 0668 8330A0E1 		mov	r3, r3, asl #1
 2393 066c 10300BE5 		str	r3, [fp, #-16]
 187:../gpio.c     **** 
 188:../gpio.c     **** 	if (pin < 0 || pin > 7)
 2394              		.loc 1 188 0
 2395 0670 18301BE5 		ldr	r3, [fp, #-24]
 2396 0674 000053E3 		cmp	r3, #0
 2397 0678 020000BA 		blt	.L65
 2398              		.loc 1 188 0 is_stmt 0 discriminator 1
 2399 067c 18301BE5 		ldr	r3, [fp, #-24]
 2400 0680 070053E3 		cmp	r3, #7
 2401 0684 010000DA 		ble	.L66
 2402              	.L65:
 189:../gpio.c     **** 		return -1;
 2403              		.loc 1 189 0 is_stmt 1
 2404 0688 0030E0E3 		mvn	r3, #0
 2405 068c 270000EA 		b	.L67
 2406              	.L66:
 190:../gpio.c     **** 
 191:../gpio.c     **** 	if (val < 0 || val > 1)
 2407              		.loc 1 191 0
 2408 0690 19305BE5 		ldrb	r3, [fp, #-25]	@ zero_extendqisi2
 2409 0694 010053E3 		cmp	r3, #1
 2410 0698 0100009A 		bls	.L68
 192:../gpio.c     **** 		return -1;
 2411              		.loc 1 192 0
 2412 069c 0030E0E3 		mvn	r3, #0
 2413 06a0 220000EA 		b	.L67
 2414              	.L68:
 193:../gpio.c     **** 
 194:../gpio.c     **** 	if ((rPCONG & (0x3 << pos)) != (0x1 << pos))
 2415              		.loc 1 194 0
 2416 06a4 94309FE5 		ldr	r3, .L72
 2417 06a8 002093E5 		ldr	r2, [r3, #0]
 2418 06ac 0310A0E3 		mov	r1, #3
 2419 06b0 10301BE5 		ldr	r3, [fp, #-16]
 2420 06b4 1133A0E1 		mov	r3, r1, asl r3
 2421 06b8 032002E0 		and	r2, r2, r3
 2422 06bc 0110A0E3 		mov	r1, #1
 2423 06c0 10301BE5 		ldr	r3, [fp, #-16]
 2424 06c4 1133A0E1 		mov	r3, r1, asl r3
 2425 06c8 030052E1 		cmp	r2, r3
 2426 06cc 0100000A 		beq	.L69
 195:../gpio.c     **** 		return -1;
 2427              		.loc 1 195 0
 2428 06d0 0030E0E3 		mvn	r3, #0
 2429 06d4 150000EA 		b	.L67
 2430              	.L69:
 196:../gpio.c     **** 
 197:../gpio.c     **** 	if (val)
 2431              		.loc 1 197 0
 2432 06d8 19305BE5 		ldrb	r3, [fp, #-25]	@ zero_extendqisi2
 2433 06dc 000053E3 		cmp	r3, #0
 2434 06e0 0800000A 		beq	.L70
 198:../gpio.c     **** 		rPDATG |=(0x1<<pos);
 2435              		.loc 1 198 0
 2436 06e4 58309FE5 		ldr	r3, .L72+4
 2437 06e8 54209FE5 		ldr	r2, .L72+4
 2438 06ec 001092E5 		ldr	r1, [r2, #0]
 2439 06f0 0100A0E3 		mov	r0, #1
 2440 06f4 10201BE5 		ldr	r2, [fp, #-16]
 2441 06f8 1022A0E1 		mov	r2, r0, asl r2
 2442 06fc 022081E1 		orr	r2, r1, r2
 2443 0700 002083E5 		str	r2, [r3, #0]
 2444 0704 080000EA 		b	.L71
 2445              	.L70:
 199:../gpio.c     **** 	else
 200:../gpio.c     **** 		rPDATG &=~(0x1<<pos);
 2446              		.loc 1 200 0
 2447 0708 34309FE5 		ldr	r3, .L72+4
 2448 070c 30209FE5 		ldr	r2, .L72+4
 2449 0710 001092E5 		ldr	r1, [r2, #0]
 2450 0714 0100A0E3 		mov	r0, #1
 2451 0718 10201BE5 		ldr	r2, [fp, #-16]
 2452 071c 1022A0E1 		mov	r2, r0, asl r2
 2453 0720 0220E0E1 		mvn	r2, r2
 2454 0724 022001E0 		and	r2, r1, r2
 2455 0728 002083E5 		str	r2, [r3, #0]
 2456              	.L71:
 201:../gpio.c     **** 
 202:../gpio.c     **** 	return 0;
 2457              		.loc 1 202 0
 2458 072c 0030A0E3 		mov	r3, #0
 2459              	.L67:
 203:../gpio.c     **** }
 2460              		.loc 1 203 0
 2461 0730 0300A0E1 		mov	r0, r3
 2462 0734 0CD04BE2 		sub	sp, fp, #12
 2463 0738 00689DE8 		ldmfd	sp, {fp, sp, lr}
 2464 073c 1EFF2FE1 		bx	lr
 2465              	.L73:
 2466              		.align	2
 2467              	.L72:
 2468 0740 4000D201 		.word	30539840
 2469 0744 4400D201 		.word	30539844
 2470              		.cfi_endproc
 2471              	.LFE6:
 2473              	.Letext0: